target datalayout = "e-m:e-p270:32:32-p271:32:32-p272:64:64-i64:64-i128:128-f80:128-n8:16:32:64-S128"
target triple = "x86_64-pc-linux-gnu"

%struct.SDL_WaylandSeat = type { ptr, ptr, ptr, ptr, ptr, %struct.wl_list, i32, i32, %struct.anon, %struct.anon.1, %struct.anon.4, %struct.anon.5, %struct.anon.6 }
%struct.wl_list = type { ptr, ptr }
%struct.anon = type { ptr, ptr, ptr, ptr, ptr, %struct.SDL_WaylandKeyboardRepeat, i64, i16, i16, i32, i8, %struct.anon.0 }
%struct.SDL_WaylandKeyboardRepeat = type { i32, i32, i32, i8, i8, i32, i64, i64, i64, i32, [8 x i8] }
%struct.anon.0 = type { ptr, ptr, ptr, ptr, i32, i32, i32, i32, i32, i32, i32, i32, i32, i32, i32 }
%struct.anon.1 = type { ptr, ptr, ptr, ptr, ptr, ptr, ptr, ptr, i64, i32, i32, %struct.SDL_Point, i32, %struct.anon.2, %struct.anon.3 }
%struct.SDL_Point = type { i32, i32 }
%struct.anon.2 = type { i32, float, i32, float, i64, i32 }
%struct.anon.3 = type { ptr, ptr, ptr, i64, i64, i32 }
%struct.anon.4 = type { ptr, ptr, i64, %struct.wl_list }
%struct.anon.5 = type { ptr, %struct.SDL_Rect, i8, i8 }
%struct.SDL_Rect = type { i32, i32, i32, i32 }
%struct.anon.6 = type { ptr, %struct.wl_list }
%struct.SDL_VideoData = type { i8, ptr, i32, ptr, ptr, ptr, ptr, i32, %struct.anon.7, ptr, ptr, ptr, ptr, ptr, ptr, ptr, ptr, ptr, ptr, ptr, ptr, ptr, ptr, ptr, ptr, ptr, ptr, ptr, ptr, ptr, ptr, %struct.wl_list, ptr, ptr, ptr, ptr, i32, i32, i8, i8 }
%struct.anon.7 = type { ptr }
%struct.SDL_AtomicInt = type { i32 }
%struct.SDL_WindowData = type { ptr, ptr, ptr, ptr, ptr, ptr, ptr, %union.anon, i32, i32, i32, i32, ptr, ptr, ptr, ptr, ptr, ptr, ptr, ptr, ptr, ptr, ptr, ptr, ptr, ptr, %struct.SDL_AtomicInt, ptr, i32, ptr, double, ptr, i32, i32, i32, i32, %struct.anon.14, %struct.anon.15, %struct.anon.16, %struct.anon.17, %struct.anon.18, %struct.anon.19, %struct.anon.20, i32, i32, i32, i64, i32, i32, i8, i8, i8, i8, i8, i8, i8, i8, i8, i8, i8, i8, i8, i8, i32, %struct.wl_list }
%union.anon = type { %struct.anon.10 }
%struct.anon.10 = type { ptr, %union.anon.11, i8 }
%union.anon.11 = type { %struct.anon.13 }
%struct.anon.13 = type { ptr, ptr }
%struct.anon.14 = type { double, double }
%struct.anon.15 = type { i32, i32, i32, i32 }
%struct.anon.16 = type { i32, i32, i32, i32 }
%struct.anon.17 = type { i32, i32 }
%struct.anon.18 = type { i32, i32 }
%struct.anon.19 = type { i32, i32 }
%struct.anon.20 = type { i32, i32, i8 }
%struct.SDL_WaylandTouchPoint = type { i64, i32, i32, ptr, %struct.wl_list }
%struct.SDL_WaylandPenTool = type { i32, %struct.SDL_PenInfo, ptr, ptr, float, float, i8, [7 x float], i32, i32, [3 x i32], %struct.wl_list }
%struct.SDL_PenInfo = type { i32, float, i32, i32, i32 }
%union.anon.21 = type { double }

@WAYLAND_wl_list_remove = external global ptr, align 8
@WAYLAND_wl_proxy_get_user_data = external global ptr, align 8

; Function Attrs: inlinehint nounwind uwtable
define internal double @wl_fixed_to_double(i32 noundef %0) #2 {
  %2 = alloca i32, align 4
  %3 = alloca %union.anon.21, align 8
  store i32 %0, ptr %2, align 4
  call void @llvm.lifetime.start.p0(i64 8, ptr %3) #10
  %4 = load i32, ptr %2, align 4
  %5 = sext i32 %4 to i64
  %6 = add nsw i64 4807592602218004480, %5
  store i64 %6, ptr %3, align 8
  %7 = load double, ptr %3, align 8
  %8 = fsub double %7, 0x42B8000000000000
  call void @llvm.lifetime.end.p0(i64 8, ptr %3) #10
  ret double %8
}

; Function Attrs: inlinehint nounwind uwtable
define internal ptr @wl_surface_get_user_data(ptr noundef %0) #2 {
  %2 = alloca ptr, align 8
  store ptr %0, ptr %2, align 8
  %3 = load ptr, ptr @WAYLAND_wl_proxy_get_user_data, align 8
  %4 = load ptr, ptr %2, align 8
  %5 = call ptr %3(ptr noundef %4)
  ret ptr %5
}

; Function Attrs: nounwind uwtable
define internal void @tablet_tool_handle_proximity_out(ptr noundef %0, ptr noundef %1) #0 {
  %3 = alloca ptr, align 8
  %4 = alloca ptr, align 8
  %5 = alloca ptr, align 8
  store ptr %0, ptr %3, align 8
  store ptr %1, ptr %4, align 8
  call void @llvm.lifetime.start.p0(i64 8, ptr %5) #10
  %6 = load ptr, ptr %3, align 8
  store ptr %6, ptr %5, align 8
  %7 = load ptr, ptr %5, align 8
  %8 = getelementptr inbounds nuw %struct.SDL_WaylandPenTool, ptr %7, i32 0, i32 2
  store ptr null, ptr %8, align 8
  %9 = load ptr, ptr %5, align 8
  %10 = getelementptr inbounds nuw %struct.SDL_WaylandPenTool, ptr %9, i32 0, i32 0
  %11 = load i32, ptr %10, align 8
  %12 = icmp ne i32 %11, 0
  br i1 %12, label %13, label %19

13:                                               ; preds = %2
  %14 = load ptr, ptr %5, align 8
  %15 = getelementptr inbounds nuw %struct.SDL_WaylandPenTool, ptr %14, i32 0, i32 0
  %16 = load i32, ptr %15, align 8
  call void @SDL_RemovePenDevice(i64 noundef 0, i32 noundef %16)
  %17 = load ptr, ptr %5, align 8
  %18 = getelementptr inbounds nuw %struct.SDL_WaylandPenTool, ptr %17, i32 0, i32 0
  store i32 0, ptr %18, align 8
  br label %19

19:                                               ; preds = %13, %2
  call void @llvm.lifetime.end.p0(i64 8, ptr %5) #10
  ret void
}

; Function Attrs: nounwind uwtable
define internal void @Wayland_SeatCancelTouch(ptr noundef %0, ptr noundef %1) #0 {
  %3 = alloca ptr, align 8
  %4 = alloca ptr, align 8
  %5 = alloca ptr, align 8
  %6 = alloca float, align 4
  %7 = alloca float, align 4
  store ptr %0, ptr %3, align 8
  store ptr %1, ptr %4, align 8
  %8 = load ptr, ptr %4, align 8
  %9 = getelementptr inbounds nuw %struct.SDL_WaylandTouchPoint, ptr %8, i32 0, i32 3
  %10 = load ptr, ptr %9, align 8
  %11 = icmp ne ptr %10, null
  br i1 %11, label %12, label %83

12:                                               ; preds = %2
  call void @llvm.lifetime.start.p0(i64 8, ptr %5) #10
  %13 = load ptr, ptr %4, align 8
  %14 = getelementptr inbounds nuw %struct.SDL_WaylandTouchPoint, ptr %13, i32 0, i32 3
  %15 = load ptr, ptr %14, align 8
  %16 = call ptr @wl_surface_get_user_data(ptr noundef %15)
  store ptr %16, ptr %5, align 8
  %17 = load ptr, ptr %5, align 8
  %18 = icmp ne ptr %17, null
  br i1 %18, label %19, label %82

19:                                               ; preds = %12
  call void @llvm.lifetime.start.p0(i64 4, ptr %6) #10
  %20 = load ptr, ptr %4, align 8
  %21 = getelementptr inbounds nuw %struct.SDL_WaylandTouchPoint, ptr %20, i32 0, i32 1
  %22 = load i32, ptr %21, align 8
  %23 = call double @wl_fixed_to_double(i32 noundef %22)
  %24 = load ptr, ptr %5, align 8
  %25 = getelementptr inbounds nuw %struct.SDL_WindowData, ptr %24, i32 0, i32 38
  %26 = getelementptr inbounds nuw %struct.anon.16, ptr %25, i32 0, i32 0
  %27 = load i32, ptr %26, align 8
  %28 = sitofp i32 %27 to double
  %29 = fdiv double %23, %28
  %30 = fptrunc double %29 to float
  store float %30, ptr %6, align 4
  call void @llvm.lifetime.start.p0(i64 4, ptr %7) #10
  %31 = load ptr, ptr %4, align 8
  %32 = getelementptr inbounds nuw %struct.SDL_WaylandTouchPoint, ptr %31, i32 0, i32 2
  %33 = load i32, ptr %32, align 4
  %34 = call double @wl_fixed_to_double(i32 noundef %33)
  %35 = load ptr, ptr %5, align 8
  %36 = getelementptr inbounds nuw %struct.SDL_WindowData, ptr %35, i32 0, i32 38
  %37 = getelementptr inbounds nuw %struct.anon.16, ptr %36, i32 0, i32 1
  %38 = load i32, ptr %37, align 4
  %39 = sitofp i32 %38 to double
  %40 = fdiv double %34, %39
  %41 = fptrunc double %40 to float
  store float %41, ptr %7, align 4
  %42 = load ptr, ptr %3, align 8
  %43 = getelementptr inbounds nuw %struct.SDL_WaylandSeat, ptr %42, i32 0, i32 10
  %44 = getelementptr inbounds nuw %struct.anon.4, ptr %43, i32 0, i32 0
  %45 = load ptr, ptr %44, align 8
  %46 = ptrtoint ptr %45 to i64
  %47 = load ptr, ptr %4, align 8
  %48 = getelementptr inbounds nuw %struct.SDL_WaylandTouchPoint, ptr %47, i32 0, i32 0
  %49 = load i64, ptr %48, align 8
  %50 = add i64 %49, 1
  %51 = load ptr, ptr %5, align 8
  %52 = getelementptr inbounds nuw %struct.SDL_WindowData, ptr %51, i32 0, i32 0
  %53 = load ptr, ptr %52, align 8
  %54 = load float, ptr %6, align 4
  %55 = load float, ptr %7, align 4
  call void @SDL_SendTouch(i64 noundef 0, i64 noundef %46, i64 noundef %50, ptr noundef %53, i32 noundef 1795, float noundef %54, float noundef %55, float noundef 0.000000e+00)
  %56 = load ptr, ptr %5, align 8
  %57 = getelementptr inbounds nuw %struct.SDL_WindowData, ptr %56, i32 0, i32 35
  %58 = load i32, ptr %57, align 4
  %59 = add nsw i32 %58, -1
  store i32 %59, ptr %57, align 4
  %60 = call ptr @SDL_GetMouseFocus_REAL()
  %61 = load ptr, ptr %5, align 8
  %62 = getelementptr inbounds nuw %struct.SDL_WindowData, ptr %61, i32 0, i32 0
  %63 = load ptr, ptr %62, align 8
  %64 = icmp eq ptr %60, %63
  br i1 %64, label %65, label %81

65:                                               ; preds = %19
  %66 = load ptr, ptr %5, align 8
  %67 = getelementptr inbounds nuw %struct.SDL_WindowData, ptr %66, i32 0, i32 33
  %68 = load i32, ptr %67, align 4
  %69 = icmp ne i32 %68, 0
  br i1 %69, label %81, label %70

70:                                               ; preds = %65
  %71 = load ptr, ptr %5, align 8
  %72 = getelementptr inbounds nuw %struct.SDL_WindowData, ptr %71, i32 0, i32 34
  %73 = load i32, ptr %72, align 8
  %74 = icmp ne i32 %73, 0
  br i1 %74, label %81, label %75

75:                                               ; preds = %70
  %76 = load ptr, ptr %5, align 8
  %77 = getelementptr inbounds nuw %struct.SDL_WindowData, ptr %76, i32 0, i32 35
  %78 = load i32, ptr %77, align 4
  %79 = icmp ne i32 %78, 0
  br i1 %79, label %81, label %80

80:                                               ; preds = %75
  call void @SDL_SetMouseFocus(ptr noundef null)
  br label %81

81:                                               ; preds = %80, %75, %70, %65, %19
  call void @llvm.lifetime.end.p0(i64 4, ptr %7) #10
  call void @llvm.lifetime.end.p0(i64 4, ptr %6) #10
  br label %82

82:                                               ; preds = %81, %12
  call void @llvm.lifetime.end.p0(i64 8, ptr %5) #10
  br label %83

83:                                               ; preds = %82, %2
  %84 = load ptr, ptr @WAYLAND_wl_list_remove, align 8
  %85 = load ptr, ptr %4, align 8
  %86 = getelementptr inbounds nuw %struct.SDL_WaylandTouchPoint, ptr %85, i32 0, i32 4
  call void %84(ptr noundef %86)
  %87 = load ptr, ptr %4, align 8
  call void @SDL_free_REAL(ptr noundef %87)
  ret void
}

; Function Attrs: nounwind uwtable
define hidden void @Wayland_DisplayRemoveWindowReferencesFromSeats(ptr noundef %0, ptr noundef %1) #0 {
  %3 = alloca ptr, align 8
  %4 = alloca ptr, align 8
  %5 = alloca ptr, align 8
  %6 = alloca ptr, align 8
  %7 = alloca ptr, align 8
  %8 = alloca ptr, align 8
  store ptr %0, ptr %3, align 8
  store ptr %1, ptr %4, align 8
  call void @llvm.lifetime.start.p0(i64 8, ptr %5) #10
  %9 = load ptr, ptr %3, align 8
  %10 = getelementptr inbounds nuw %struct.SDL_VideoData, ptr %9, i32 0, i32 31
  %11 = getelementptr inbounds nuw %struct.wl_list, ptr %10, i32 0, i32 1
  %12 = load ptr, ptr %11, align 8
  %13 = getelementptr inbounds i8, ptr %12, i64 -40
  store ptr %13, ptr %5, align 8
  br label %14

14:                                               ; preds = %125, %2
  %15 = load ptr, ptr %5, align 8
  %16 = getelementptr inbounds nuw %struct.SDL_WaylandSeat, ptr %15, i32 0, i32 5
  %17 = load ptr, ptr %3, align 8
  %18 = getelementptr inbounds nuw %struct.SDL_VideoData, ptr %17, i32 0, i32 31
  %19 = icmp ne ptr %16, %18
  br i1 %19, label %20, label %131

20:                                               ; preds = %14
  %21 = load ptr, ptr %5, align 8
  %22 = getelementptr inbounds nuw %struct.SDL_WaylandSeat, ptr %21, i32 0, i32 8
  %23 = getelementptr inbounds nuw %struct.anon, ptr %22, i32 0, i32 3
  %24 = load ptr, ptr %23, align 8
  %25 = load ptr, ptr %4, align 8
  %26 = icmp eq ptr %24, %25
  br i1 %26, label %27, label %36

27:                                               ; preds = %20
  %28 = load ptr, ptr %5, align 8
  %29 = load ptr, ptr %5, align 8
  %30 = getelementptr inbounds nuw %struct.SDL_WaylandSeat, ptr %29, i32 0, i32 8
  %31 = getelementptr inbounds nuw %struct.anon, ptr %30, i32 0, i32 0
  %32 = load ptr, ptr %31, align 8
  %33 = load ptr, ptr %4, align 8
  %34 = getelementptr inbounds nuw %struct.SDL_WindowData, ptr %33, i32 0, i32 2
  %35 = load ptr, ptr %34, align 8
  call void @keyboard_handle_leave(ptr noundef %28, ptr noundef %32, i32 noundef 0, ptr noundef %35)
  br label %36

36:                                               ; preds = %27, %20
  %37 = load ptr, ptr %5, align 8
  %38 = getelementptr inbounds nuw %struct.SDL_WaylandSeat, ptr %37, i32 0, i32 9
  %39 = getelementptr inbounds nuw %struct.anon.1, ptr %38, i32 0, i32 6
  %40 = load ptr, ptr %39, align 8
  %41 = load ptr, ptr %4, align 8
  %42 = icmp eq ptr %40, %41
  br i1 %42, label %43, label %52

43:                                               ; preds = %36
  %44 = load ptr, ptr %5, align 8
  %45 = load ptr, ptr %5, align 8
  %46 = getelementptr inbounds nuw %struct.SDL_WaylandSeat, ptr %45, i32 0, i32 9
  %47 = getelementptr inbounds nuw %struct.anon.1, ptr %46, i32 0, i32 0
  %48 = load ptr, ptr %47, align 8
  %49 = load ptr, ptr %4, align 8
  %50 = getelementptr inbounds nuw %struct.SDL_WindowData, ptr %49, i32 0, i32 2
  %51 = load ptr, ptr %50, align 8
  call void @pointer_handle_leave(ptr noundef %44, ptr noundef %48, i32 noundef 0, ptr noundef %51)
  br label %52

52:                                               ; preds = %43, %36
  call void @llvm.lifetime.start.p0(i64 8, ptr %6) #10
  call void @llvm.lifetime.start.p0(i64 8, ptr %7) #10
  %53 = load ptr, ptr %5, align 8
  %54 = getelementptr inbounds nuw %struct.SDL_WaylandSeat, ptr %53, i32 0, i32 10
  %55 = getelementptr inbounds nuw %struct.anon.4, ptr %54, i32 0, i32 3
  %56 = getelementptr inbounds nuw %struct.wl_list, ptr %55, i32 0, i32 1
  %57 = load ptr, ptr %56, align 8
  %58 = getelementptr inbounds i8, ptr %57, i64 -24
  store ptr %58, ptr %6, align 8
  %59 = load ptr, ptr %6, align 8
  %60 = getelementptr inbounds nuw %struct.SDL_WaylandTouchPoint, ptr %59, i32 0, i32 4
  %61 = getelementptr inbounds nuw %struct.wl_list, ptr %60, i32 0, i32 1
  %62 = load ptr, ptr %61, align 8
  %63 = getelementptr inbounds i8, ptr %62, i64 -24
  store ptr %63, ptr %7, align 8
  br label %64

64:                                               ; preds = %83, %52
  %65 = load ptr, ptr %6, align 8
  %66 = getelementptr inbounds nuw %struct.SDL_WaylandTouchPoint, ptr %65, i32 0, i32 4
  %67 = load ptr, ptr %5, align 8
  %68 = getelementptr inbounds nuw %struct.SDL_WaylandSeat, ptr %67, i32 0, i32 10
  %69 = getelementptr inbounds nuw %struct.anon.4, ptr %68, i32 0, i32 3
  %70 = icmp ne ptr %66, %69
  br i1 %70, label %71, label %90

71:                                               ; preds = %64
  %72 = load ptr, ptr %6, align 8
  %73 = getelementptr inbounds nuw %struct.SDL_WaylandTouchPoint, ptr %72, i32 0, i32 3
  %74 = load ptr, ptr %73, align 8
  %75 = load ptr, ptr %4, align 8
  %76 = getelementptr inbounds nuw %struct.SDL_WindowData, ptr %75, i32 0, i32 2
  %77 = load ptr, ptr %76, align 8
  %78 = icmp eq ptr %74, %77
  br i1 %78, label %79, label %82

79:                                               ; preds = %71
  %80 = load ptr, ptr %5, align 8
  %81 = load ptr, ptr %6, align 8
  call void @Wayland_SeatCancelTouch(ptr noundef %80, ptr noundef %81)
  br label %82

82:                                               ; preds = %79, %71
  br label %83

83:                                               ; preds = %82
  %84 = load ptr, ptr %7, align 8
  store ptr %84, ptr %6, align 8
  %85 = load ptr, ptr %6, align 8
  %86 = getelementptr inbounds nuw %struct.SDL_WaylandTouchPoint, ptr %85, i32 0, i32 4
  %87 = getelementptr inbounds nuw %struct.wl_list, ptr %86, i32 0, i32 1
  %88 = load ptr, ptr %87, align 8
  %89 = getelementptr inbounds i8, ptr %88, i64 -24
  store ptr %89, ptr %7, align 8
  br label %64, !llvm.loop !16

90:                                               ; preds = %64
  call void @llvm.lifetime.start.p0(i64 8, ptr %8) #10
  %91 = load ptr, ptr %5, align 8
  %92 = getelementptr inbounds nuw %struct.SDL_WaylandSeat, ptr %91, i32 0, i32 12
  %93 = getelementptr inbounds nuw %struct.anon.6, ptr %92, i32 0, i32 1
  %94 = getelementptr inbounds nuw %struct.wl_list, ptr %93, i32 0, i32 1
  %95 = load ptr, ptr %94, align 8
  %96 = getelementptr inbounds i8, ptr %95, i64 -104
  store ptr %96, ptr %8, align 8
  br label %97

97:                                               ; preds = %118, %90
  %98 = load ptr, ptr %8, align 8
  %99 = getelementptr inbounds nuw %struct.SDL_WaylandPenTool, ptr %98, i32 0, i32 11
  %100 = load ptr, ptr %5, align 8
  %101 = getelementptr inbounds nuw %struct.SDL_WaylandSeat, ptr %100, i32 0, i32 12
  %102 = getelementptr inbounds nuw %struct.anon.6, ptr %101, i32 0, i32 1
  %103 = icmp ne ptr %99, %102
  br i1 %103, label %104, label %124

104:                                              ; preds = %97
  %105 = load ptr, ptr %8, align 8
  %106 = getelementptr inbounds nuw %struct.SDL_WaylandPenTool, ptr %105, i32 0, i32 2
  %107 = load ptr, ptr %106, align 8
  %108 = load ptr, ptr %4, align 8
  %109 = getelementptr inbounds nuw %struct.SDL_WindowData, ptr %108, i32 0, i32 0
  %110 = load ptr, ptr %109, align 8
  %111 = icmp eq ptr %107, %110
  br i1 %111, label %112, label %117

112:                                              ; preds = %104
  %113 = load ptr, ptr %8, align 8
  %114 = load ptr, ptr %8, align 8
  %115 = getelementptr inbounds nuw %struct.SDL_WaylandPenTool, ptr %114, i32 0, i32 3
  %116 = load ptr, ptr %115, align 8
  call void @tablet_tool_handle_proximity_out(ptr noundef %113, ptr noundef %116)
  br label %117

117:                                              ; preds = %112, %104
  br label %118

118:                                              ; preds = %117
  %119 = load ptr, ptr %8, align 8
  %120 = getelementptr inbounds nuw %struct.SDL_WaylandPenTool, ptr %119, i32 0, i32 11
  %121 = getelementptr inbounds nuw %struct.wl_list, ptr %120, i32 0, i32 1
  %122 = load ptr, ptr %121, align 8
  %123 = getelementptr inbounds i8, ptr %122, i64 -104
  store ptr %123, ptr %8, align 8
  br label %97, !llvm.loop !17

124:                                              ; preds = %97
  call void @llvm.lifetime.end.p0(i64 8, ptr %8) #10
  call void @llvm.lifetime.end.p0(i64 8, ptr %7) #10
  call void @llvm.lifetime.end.p0(i64 8, ptr %6) #10
  br label %125

125:                                              ; preds = %124
  %126 = load ptr, ptr %5, align 8
  %127 = getelementptr inbounds nuw %struct.SDL_WaylandSeat, ptr %126, i32 0, i32 5
  %128 = getelementptr inbounds nuw %struct.wl_list, ptr %127, i32 0, i32 1
  %129 = load ptr, ptr %128, align 8
  %130 = getelementptr inbounds i8, ptr %129, i64 -40
  store ptr %130, ptr %5, align 8
  br label %14, !llvm.loop !18

131:                                              ; preds = %14
  call void @llvm.lifetime.end.p0(i64 8, ptr %5) #10
  ret void
}