; Function Attrs: nounwind uwtable
define hidden void @Wayland_DisplayRemoveWindowReferencesFromSeats(ptr noundef readonly captures(address) %0, ptr noundef readonly captures(address) %1) local_unnamed_addr #0 {
  %3 = getelementptr inbounds nuw i8, ptr %0, i64 248
  %4 = getelementptr inbounds nuw i8, ptr %0, i64 256
  %.pn60 = load ptr, ptr %4, align 8
  %.not62 = icmp eq ptr %.pn60, %3
  br i1 %.not62, label %._crit_edge67, label %.lr.ph66

.lr.ph66:                                         ; preds = %2
  %5 = getelementptr inbounds nuw i8, ptr %1, i64 16
  br label %6

6:                                                ; preds = %.lr.ph66, %._crit_edge59
  %.pn63 = phi ptr [ %.pn60, %.lr.ph66 ], [ %.pn, %._crit_edge59 ]
  %.03464 = getelementptr inbounds i8, ptr %.pn63, i64 -40
  %7 = getelementptr inbounds nuw i8, ptr %.pn63, i64 48
  %8 = load ptr, ptr %7, align 8
  %9 = icmp eq ptr %8, %1
  br i1 %9, label %10, label %12

10:                                               ; preds = %6
  %11 = load ptr, ptr %5, align 8
  tail call void @keyboard_handle_leave(ptr noundef nonnull %.03464, ptr poison, i32 poison, ptr noundef %11)
  br label %12

12:                                               ; preds = %10, %6
  %13 = getelementptr inbounds nuw i8, ptr %.pn63, i64 280
  %14 = load ptr, ptr %13, align 8
  %15 = icmp eq ptr %14, %1
  br i1 %15, label %16, label %18

16:                                               ; preds = %12
  %17 = load ptr, ptr %5, align 8
  tail call void @pointer_handle_leave(ptr noundef nonnull %.03464, ptr poison, i32 poison, ptr noundef %17)
  br label %18

18:                                               ; preds = %16, %12
  %19 = getelementptr inbounds nuw i8, ptr %.pn63, i64 432
  %20 = getelementptr inbounds nuw i8, ptr %.pn63, i64 440
  %21 = load ptr, ptr %20, align 8
  %.not3948 = icmp eq ptr %21, %19
  br i1 %.not3948, label %._crit_edge, label %.lr.ph

.lr.ph:                                           ; preds = %18
  %22 = getelementptr inbounds nuw i8, ptr %.pn63, i64 408
  br label %23

23:                                               ; preds = %.lr.ph, %76
  %.pn4249 = phi ptr [ %21, %.lr.ph ], [ %.pn3851, %76 ]
  %.03350 = getelementptr inbounds i8, ptr %.pn4249, i64 -24
  %.pn3851.in = getelementptr inbounds nuw i8, ptr %.pn4249, i64 8
  %.pn3851 = load ptr, ptr %.pn3851.in, align 8
  %24 = getelementptr inbounds i8, ptr %.pn4249, i64 -8
  %25 = load ptr, ptr %24, align 8
  %26 = load ptr, ptr %5, align 8
  %27 = icmp eq ptr %25, %26
  br i1 %27, label %28, label %76

28:                                               ; preds = %23
  %.not.i = icmp eq ptr %25, null
  br i1 %.not.i, label %Wayland_SeatCancelTouch.exit, label %29

29:                                               ; preds = %28
  %30 = load ptr, ptr @WAYLAND_wl_proxy_get_user_data, align 8
  %31 = tail call ptr %30(ptr noundef nonnull %25) #12
  %.not20.i = icmp eq ptr %31, null
  br i1 %.not20.i, label %Wayland_SeatCancelTouch.exit, label %32

32:                                               ; preds = %29
  %33 = getelementptr inbounds i8, ptr %.pn4249, i64 -16
  %34 = load i32, ptr %33, align 8
  %35 = sext i32 %34 to i64
  %36 = add nsw i64 %35, 4807592602218004480
  %37 = bitcast i64 %36 to double
  %38 = fadd double %37, 0xC2B8000000000000
  %39 = getelementptr inbounds nuw i8, ptr %31, i64 312
  %40 = load i32, ptr %39, align 8
  %41 = sitofp i32 %40 to double
  %42 = fdiv double %38, %41
  %43 = fptrunc double %42 to float
  %44 = getelementptr inbounds i8, ptr %.pn4249, i64 -12
  %45 = load i32, ptr %44, align 4
  %46 = sext i32 %45 to i64
  %47 = add nsw i64 %46, 4807592602218004480
  %48 = bitcast i64 %47 to double
  %49 = fadd double %48, 0xC2B8000000000000
  %50 = getelementptr inbounds nuw i8, ptr %31, i64 316
  %51 = load i32, ptr %50, align 4
  %52 = sitofp i32 %51 to double
  %53 = fdiv double %49, %52
  %54 = fptrunc double %53 to float
  %55 = load ptr, ptr %22, align 8
  %56 = ptrtoint ptr %55 to i64
  %57 = load i64, ptr %.03350, align 8
  %58 = add i64 %57, 1
  %59 = load ptr, ptr %31, align 8
  tail call void @SDL_SendTouch(i64 noundef 0, i64 noundef %56, i64 noundef %58, ptr noundef %59, i32 noundef 1795, float noundef %43, float noundef %54, float noundef 0.000000e+00) #12
  %60 = getelementptr inbounds nuw i8, ptr %31, i64 276
  %61 = load i32, ptr %60, align 4
  %62 = add nsw i32 %61, -1
  store i32 %62, ptr %60, align 4
  %63 = tail call ptr @SDL_GetMouseFocus_REAL() #12
  %64 = load ptr, ptr %31, align 8
  %65 = icmp eq ptr %63, %64
  br i1 %65, label %66, label %Wayland_SeatCancelTouch.exit

66:                                               ; preds = %32
  %67 = getelementptr inbounds nuw i8, ptr %31, i64 268
  %68 = load i32, ptr %67, align 4
  %.not21.i = icmp eq i32 %68, 0
  br i1 %.not21.i, label %69, label %Wayland_SeatCancelTouch.exit

69:                                               ; preds = %66
  %70 = getelementptr inbounds nuw i8, ptr %31, i64 272
  %71 = load i32, ptr %70, align 8
  %.not22.i = icmp eq i32 %71, 0
  br i1 %.not22.i, label %72, label %Wayland_SeatCancelTouch.exit

72:                                               ; preds = %69
  %73 = load i32, ptr %60, align 4
  %.not23.i = icmp eq i32 %73, 0
  br i1 %.not23.i, label %74, label %Wayland_SeatCancelTouch.exit

74:                                               ; preds = %72
  tail call void @SDL_SetMouseFocus(ptr noundef null) #12
  br label %Wayland_SeatCancelTouch.exit

Wayland_SeatCancelTouch.exit:                     ; preds = %28, %29, %32, %66, %69, %72, %74
  %75 = load ptr, ptr @WAYLAND_wl_list_remove, align 8
  tail call void %75(ptr noundef nonnull %.pn4249) #12
  tail call void @SDL_free_REAL(ptr noundef nonnull %.03350) #12
  br label %76

76:                                               ; preds = %23, %Wayland_SeatCancelTouch.exit
  %.not39 = icmp eq ptr %.pn3851, %19
  br i1 %.not39, label %._crit_edge, label %23, !llvm.loop !16

._crit_edge:                                      ; preds = %76, %18
  %77 = getelementptr inbounds nuw i8, ptr %.pn63, i64 488
  %78 = getelementptr inbounds nuw i8, ptr %.pn63, i64 496
  %.pn4052 = load ptr, ptr %78, align 8
  %.not4154 = icmp eq ptr %.pn4052, %77
  br i1 %.not4154, label %._crit_edge59, label %.lr.ph58

.lr.ph58:                                         ; preds = %._crit_edge, %tablet_tool_handle_proximity_out.exit
  %.pn4055 = phi ptr [ %.pn40, %tablet_tool_handle_proximity_out.exit ], [ %.pn4052, %._crit_edge ]
  %.056 = getelementptr inbounds i8, ptr %.pn4055, i64 -104
  %79 = getelementptr inbounds i8, ptr %.pn4055, i64 -80
  %80 = load ptr, ptr %79, align 8
  %81 = load ptr, ptr %1, align 8
  %82 = icmp eq ptr %80, %81
  br i1 %82, label %83, label %tablet_tool_handle_proximity_out.exit

83:                                               ; preds = %.lr.ph58
  store ptr null, ptr %79, align 8
  %84 = load i32, ptr %.056, align 8
  %.not.i44 = icmp eq i32 %84, 0
  br i1 %.not.i44, label %tablet_tool_handle_proximity_out.exit, label %85

85:                                               ; preds = %83
  tail call void @SDL_RemovePenDevice(i64 noundef 0, i32 noundef %84) #12
  store i32 0, ptr %.056, align 8
  br label %tablet_tool_handle_proximity_out.exit

tablet_tool_handle_proximity_out.exit:            ; preds = %85, %83, %.lr.ph58
  %86 = getelementptr inbounds nuw i8, ptr %.pn4055, i64 8
  %.pn40 = load ptr, ptr %86, align 8
  %.not41 = icmp eq ptr %.pn40, %77
  br i1 %.not41, label %._crit_edge59, label %.lr.ph58, !llvm.loop !17

._crit_edge59:                                    ; preds = %tablet_tool_handle_proximity_out.exit, %._crit_edge
  %87 = getelementptr inbounds nuw i8, ptr %.pn63, i64 8
  %.pn = load ptr, ptr %87, align 8
  %.not = icmp eq ptr %.pn, %3
  br i1 %.not, label %._crit_edge67, label %6, !llvm.loop !18

._crit_edge67:                                    ; preds = %._crit_edge59, %2
  ret void
}